Certificate:
    Data:
        Version: 1 (0x0)
        Serial Number:
            61:22:9a:a4:f6:39:9f:09:f5:42:3b:0d:eb:a5:8f:cf:6f:40:19:38
        Signature Algorithm: sha256WithRSAEncryption
        Issuer: C = JP, ST = TOKYO, L = TOKYO, O = WolfSSL Japan, OU = Consulting, CN = www.wolfssl.com, emailAddress = info@wolfssl.com
        Validity
            Not Before: Jun 10 05:35:21 2021 GMT
            Not After : Mar  6 05:35:21 2024 GMT
        Subject: C = JP, ST = TOKYO, L = TOKYO, O = WolfSSL Japan, OU = Consulting, CN = www.wolfssl.com, emailAddress = info@wolfssl.com
        Subject Public Key Info:
            Public Key Algorithm: rsaEncryption
                RSA Public-Key: (2048 bit)
                Modulus:
                    00:c9:5f:86:c6:66:a7:08:1b:98:d5:58:fd:2e:50:
                    ad:98:dc:60:c2:eb:fe:f3:b7:eb:9d:4d:6f:01:d3:
                    fd:8a:8d:4f:02:f9:85:a7:fa:fc:05:26:df:be:84:
                    4e:d0:1d:f0:4c:fb:10:0f:01:ae:20:d1:d1:28:cd:
                    3a:6a:68:07:18:98:14:ee:4b:22:88:94:f0:41:cc:
                    61:db:0a:a9:b1:6c:37:8e:03:c5:a1:4e:e3:66:b5:
                    39:bc:58:d0:90:ff:9b:ad:00:65:73:e7:a5:56:b6:
                    3e:20:da:1b:b1:fd:0d:30:8b:01:6a:ee:00:b3:bd:
                    37:fa:0a:c5:5a:1a:ea:e4:ce:72:e3:43:83:43:5e:
                    cb:45:f0:aa:f6:aa:ae:d0:0c:f5:5d:7f:8d:8a:b8:
                    f8:3d:2f:7d:64:e0:bb:14:8f:ca:d6:b5:0e:10:27:
                    6a:d9:38:62:8b:7d:a7:5c:d2:d4:a2:51:5e:a6:17:
                    48:f0:82:a0:29:3a:e1:ea:d4:8e:b1:fa:85:d5:4c:
                    ed:62:54:63:a1:f8:39:7d:59:d1:fe:dd:16:53:95:
                    fb:de:85:24:96:32:1a:cd:7c:94:c4:d0:9a:01:a3:
                    86:45:7e:9a:e1:1c:91:e9:7c:d0:ef:02:29:b1:a3:
                    37:7b:86:fb:bf:17:1d:ff:df:96:b9:5d:6d:ae:95:
                    a9:c1
                Exponent: 65537 (0x10001)
    Signature Algorithm: sha256WithRSAEncryption
         0e:cd:fc:ec:d3:f9:10:ad:2e:a5:6a:49:57:33:9a:79:63:3a:
         00:54:d3:5c:84:49:45:3c:16:0c:6d:76:f3:af:41:6c:e5:d3:
         0e:df:7d:9d:2c:9d:86:3e:c5:70:c4:73:7c:6b:8c:68:a8:b6:
         97:37:c8:a5:a4:01:aa:66:9b:90:7c:96:74:c6:b5:c0:ad:92:
         5c:bf:bd:06:3f:9f:1c:f3:4e:d9:d8:23:1d:ea:30:d5:1a:8e:
         33:92:bc:5a:cf:9e:f9:23:28:2e:f3:1d:c4:07:97:fc:56:cd:
         c9:f8:34:3c:61:9b:13:33:11:11:13:ee:16:c4:8c:cb:42:b2:
         1b:06:81:11:65:49:aa:b8:72:fe:f5:6e:5e:d9:c9:5b:6a:0a:
         44:cb:1e:42:45:0a:d3:7f:97:90:a5:ba:09:da:08:df:6f:25:
         03:55:b6:bb:b5:65:c9:5a:de:9b:e6:e1:b2:0a:52:f7:fc:97:
         6b:74:cb:03:de:93:00:d3:78:d4:93:eb:bc:cc:a0:3b:08:7b:
         4a:52:6b:2d:dc:3d:f0:76:6e:45:38:56:a8:4c:78:38:47:79:
         e9:a0:30:f7:59:3a:b9:28:dd:5b:fe:ae:99:e5:10:f8:03:f0:
         97:49:1a:6b:66:37:68:07:ac:8e:a5:cd:2f:3f:2e:b3:f2:1f:
         2d:1c:7e:f0
-----BEGIN CERTIFICATE-----
MIIDszCCApsCFGEimqT2OZ8J9UI7Deulj89vQBk4MA0GCSqGSIb3DQEBCwUAMIGV
MQswCQYDVQQGEwJKUDEOMAwGA1UECAwFVE9LWU8xDjAMBgNVBAcMBVRPS1lPMRYw
FAYDVQQKDA1Xb2xmU1NMIEphcGFuMRMwEQYDVQQLDApDb25zdWx0aW5nMRgwFgYD
VQQDDA93d3cud29sZnNzbC5jb20xHzAdBgkqhkiG9w0BCQEWEGluZm9Ad29sZnNz
bC5jb20wHhcNMjEwNjEwMDUzNTIxWhcNMjQwMzA2MDUzNTIxWjCBlTELMAkGA1UE
BhMCSlAxDjAMBgNVBAgMBVRPS1lPMQ4wDAYDVQQHDAVUT0tZTzEWMBQGA1UECgwN
V29sZlNTTCBKYXBhbjETMBEGA1UECwwKQ29uc3VsdGluZzEYMBYGA1UEAwwPd3d3
LndvbGZzc2wuY29tMR8wHQYJKoZIhvcNAQkBFhBpbmZvQHdvbGZzc2wuY29tMIIB
IjANBgkqhkiG9w0BAQEFAAOCAQ8AMIIBCgKCAQEAyV+GxmanCBuY1Vj9LlCtmNxg
wuv+87frnU1vAdP9io1PAvmFp/r8BSbfvoRO0B3wTPsQDwGuINHRKM06amgHGJgU
7ksiiJTwQcxh2wqpsWw3jgPFoU7jZrU5vFjQkP+brQBlc+elVrY+INobsf0NMIsB
au4As703+grFWhrq5M5y40ODQ17LRfCq9qqu0Az1XX+Nirj4PS99ZOC7FI/K1rUO
ECdq2Thii32nXNLUolFephdI8IKgKTrh6tSOsfqF1UztYlRjofg5fVnR/t0WU5X7
3oUkljIazXyUxNCaAaOGRX6a4RyR6XzQ7wIpsaM3e4b7vxcd/9+WuV1trpWpwQID
AQABMA0GCSqGSIb3DQEBCwUAA4IBAQAOzfzs0/kQrS6laklXM5p5YzoAVNNchElF
PBYMbXbzr0Fs5dMO332dLJ2GPsVwxHN8a4xoqLaXN8ilpAGqZpuQfJZ0xrXArZJc
v70GP58c807Z2CMd6jDVGo4zkrxaz575Iygu8x3EB5f8Vs3J+DQ8YZsTMxERE+4W
xIzLQrIbBoERZUmquHL+9W5e2clbagpEyx5CRQrTf5eQpboJ2gjfbyUDVba7tWXJ
Wt6b5uGyClL3/JdrdMsD3pMA03jUk+u8zKA7CHtKUmst3D3wdm5FOFaoTHg4R3np
oDD3WTq5KN1b/q6Z5RD4A/CXSRprZjdoB6yOpc0vPy6z8h8tHH7w
-----END CERTIFICATE-----
