Certificate:
    Data:
        Version: 1 (0x0)
        Serial Number: 1 (0x1)
        Signature Algorithm: sha256WithRSAEncryption
        Issuer: C = JP, ST = TOKYO, L = TOKYO, O = WolfSSL Japan, OU = Consulting, CN = www.wolfssl.com, emailAddress = info@wolfssl.com
        Validity
            Not Before: Jun 10 05:35:21 2021 GMT
            Not After : Mar  6 05:35:21 2024 GMT
        Subject: C = JP, ST = TOKYO, L = TOKYO, O = WolfSSL Japan, OU = Support, CN = www.wolfssl.com, emailAddress = info@wolfssl.com
        Subject Public Key Info:
            Public Key Algorithm: rsaEncryption
                RSA Public-Key: (2048 bit)
                Modulus:
                    00:e2:88:b5:94:49:9f:02:6d:d5:e1:b6:b9:42:2f:
                    20:25:8e:b3:1c:c6:1a:33:78:a8:26:9d:36:49:dd:
                    04:20:c5:23:de:25:d5:6f:ca:b0:af:81:89:fd:34:
                    5b:25:05:5c:d5:55:21:6c:42:56:14:e6:4c:b8:dc:
                    83:ea:27:84:94:3d:8f:cf:6d:ee:bb:54:85:b2:48:
                    9a:2c:ce:50:d0:73:df:cd:c9:7e:01:36:5e:f2:41:
                    0a:69:48:ca:b3:8d:8e:9a:5a:fb:e9:36:0c:51:a5:
                    2f:3e:df:2d:56:5a:64:80:f8:e8:59:fa:07:e5:15:
                    01:7c:da:81:96:45:55:47:47:f1:c1:2c:e1:52:fe:
                    5a:f6:63:4f:60:d0:90:8c:31:d8:76:c1:60:7c:06:
                    3a:cc:f6:13:18:2a:0a:5e:d6:04:f6:d8:f1:78:28:
                    f3:02:30:1a:13:6a:28:a8:59:a6:2e:44:07:71:49:
                    58:2f:22:2a:6f:e6:72:08:98:67:ab:86:9b:6b:7e:
                    0c:ab:ed:af:13:1d:07:df:98:ad:d7:1b:e3:3b:e0:
                    56:d9:a0:9d:7f:7b:24:dd:ef:13:1a:75:fc:c6:51:
                    e0:67:c0:47:70:e3:dd:dc:80:87:d3:a2:c0:83:48:
                    04:eb:d1:9e:34:19:ed:c0:ee:a1:03:9b:aa:c1:d4:
                    c8:a5
                Exponent: 65537 (0x10001)
    Signature Algorithm: sha256WithRSAEncryption
         5e:cc:34:2d:4d:3f:b7:3c:25:1e:b8:d3:2c:91:ca:cb:0c:e4:
         3a:b3:8a:78:57:e1:27:56:00:e5:e3:03:9d:a7:37:d0:ef:7e:
         6e:f6:62:a4:f6:2b:73:93:53:12:2b:10:a4:72:0e:0c:18:e1:
         1e:54:8c:a4:79:b5:e8:ba:0a:6b:48:89:2c:b8:8b:9e:9a:e5:
         e1:7e:e5:63:1f:cd:79:06:be:bc:40:71:b7:53:fa:57:a2:09:
         0a:62:2f:79:e6:dd:11:3f:d9:59:e2:3c:af:fa:b7:a8:67:f6:
         54:a9:c5:1b:60:a9:c4:bf:1f:85:f5:92:98:3e:c9:08:9a:b7:
         85:d7:fd:b7:eb:b0:ae:10:a9:a1:bc:10:bd:f1:27:a9:11:27:
         9a:cb:7a:88:bf:8f:3e:cf:ca:9c:f7:c0:b2:96:54:45:70:9a:
         bf:0f:2d:e3:53:f4:ba:a1:42:98:7f:99:58:39:65:a1:2b:83:
         74:62:d8:6d:21:11:eb:0c:82:50:22:a0:c3:88:52:7c:b3:c4:
         e9:38:75:11:fe:4a:47:26:37:ca:56:d7:b5:a9:d9:66:d2:e3:
         90:62:1e:35:6d:82:b0:00:2c:c4:ef:d9:d2:69:93:c9:90:52:
         36:10:4d:3c:85:63:36:64:35:84:0b:c3:55:6f:84:47:96:ad:
         6b:56:7d:22
-----BEGIN CERTIFICATE-----
MIIDnTCCAoUCAQEwDQYJKoZIhvcNAQELBQAwgZUxCzAJBgNVBAYTAkpQMQ4wDAYD
VQQIDAVUT0tZTzEOMAwGA1UEBwwFVE9LWU8xFjAUBgNVBAoMDVdvbGZTU0wgSmFw
YW4xEzARBgNVBAsMCkNvbnN1bHRpbmcxGDAWBgNVBAMMD3d3dy53b2xmc3NsLmNv
bTEfMB0GCSqGSIb3DQEJARYQaW5mb0B3b2xmc3NsLmNvbTAeFw0yMTA2MTAwNTM1
MjFaFw0yNDAzMDYwNTM1MjFaMIGSMQswCQYDVQQGEwJKUDEOMAwGA1UECAwFVE9L
WU8xDjAMBgNVBAcMBVRPS1lPMRYwFAYDVQQKDA1Xb2xmU1NMIEphcGFuMRAwDgYD
VQQLDAdTdXBwb3J0MRgwFgYDVQQDDA93d3cud29sZnNzbC5jb20xHzAdBgkqhkiG
9w0BCQEWEGluZm9Ad29sZnNzbC5jb20wggEiMA0GCSqGSIb3DQEBAQUAA4IBDwAw
ggEKAoIBAQDiiLWUSZ8CbdXhtrlCLyAljrMcxhozeKgmnTZJ3QQgxSPeJdVvyrCv
gYn9NFslBVzVVSFsQlYU5ky43IPqJ4SUPY/Pbe67VIWySJoszlDQc9/NyX4BNl7y
QQppSMqzjY6aWvvpNgxRpS8+3y1WWmSA+OhZ+gflFQF82oGWRVVHR/HBLOFS/lr2
Y09g0JCMMdh2wWB8BjrM9hMYKgpe1gT22PF4KPMCMBoTaiioWaYuRAdxSVgvIipv
5nIImGerhptrfgyr7a8THQffmK3XG+M74FbZoJ1/eyTd7xMadfzGUeBnwEdw493c
gIfTosCDSATr0Z40Ge3A7qEDm6rB1MilAgMBAAEwDQYJKoZIhvcNAQELBQADggEB
AF7MNC1NP7c8JR640yyRyssM5DqzinhX4SdWAOXjA52nN9Dvfm72YqT2K3OTUxIr
EKRyDgwY4R5UjKR5tei6CmtIiSy4i56a5eF+5WMfzXkGvrxAcbdT+leiCQpiL3nm
3RE/2VniPK/6t6hn9lSpxRtgqcS/H4X1kpg+yQiat4XX/bfrsK4QqaG8EL3xJ6kR
J5rLeoi/jz7Pypz3wLKWVEVwmr8PLeNT9LqhQph/mVg5ZaErg3Ri2G0hEesMglAi
oMOIUnyzxOk4dRH+SkcmN8pW17Wp2WbS45BiHjVtgrAALMTv2dJpk8mQUjYQTTyF
YzZkNYQLw1VvhEeWrWtWfSI=
-----END CERTIFICATE-----
Certificate:
    Data:
        Version: 1 (0x0)
        Serial Number:
            61:22:9a:a4:f6:39:9f:09:f5:42:3b:0d:eb:a5:8f:cf:6f:40:19:38
        Signature Algorithm: sha256WithRSAEncryption
        Issuer: C = JP, ST = TOKYO, L = TOKYO, O = WolfSSL Japan, OU = Consulting, CN = www.wolfssl.com, emailAddress = info@wolfssl.com
        Validity
            Not Before: Jun 10 05:35:21 2021 GMT
            Not After : Mar  6 05:35:21 2024 GMT
        Subject: C = JP, ST = TOKYO, L = TOKYO, O = WolfSSL Japan, OU = Consulting, CN = www.wolfssl.com, emailAddress = info@wolfssl.com
        Subject Public Key Info:
            Public Key Algorithm: rsaEncryption
                RSA Public-Key: (2048 bit)
                Modulus:
                    00:c9:5f:86:c6:66:a7:08:1b:98:d5:58:fd:2e:50:
                    ad:98:dc:60:c2:eb:fe:f3:b7:eb:9d:4d:6f:01:d3:
                    fd:8a:8d:4f:02:f9:85:a7:fa:fc:05:26:df:be:84:
                    4e:d0:1d:f0:4c:fb:10:0f:01:ae:20:d1:d1:28:cd:
                    3a:6a:68:07:18:98:14:ee:4b:22:88:94:f0:41:cc:
                    61:db:0a:a9:b1:6c:37:8e:03:c5:a1:4e:e3:66:b5:
                    39:bc:58:d0:90:ff:9b:ad:00:65:73:e7:a5:56:b6:
                    3e:20:da:1b:b1:fd:0d:30:8b:01:6a:ee:00:b3:bd:
                    37:fa:0a:c5:5a:1a:ea:e4:ce:72:e3:43:83:43:5e:
                    cb:45:f0:aa:f6:aa:ae:d0:0c:f5:5d:7f:8d:8a:b8:
                    f8:3d:2f:7d:64:e0:bb:14:8f:ca:d6:b5:0e:10:27:
                    6a:d9:38:62:8b:7d:a7:5c:d2:d4:a2:51:5e:a6:17:
                    48:f0:82:a0:29:3a:e1:ea:d4:8e:b1:fa:85:d5:4c:
                    ed:62:54:63:a1:f8:39:7d:59:d1:fe:dd:16:53:95:
                    fb:de:85:24:96:32:1a:cd:7c:94:c4:d0:9a:01:a3:
                    86:45:7e:9a:e1:1c:91:e9:7c:d0:ef:02:29:b1:a3:
                    37:7b:86:fb:bf:17:1d:ff:df:96:b9:5d:6d:ae:95:
                    a9:c1
                Exponent: 65537 (0x10001)
    Signature Algorithm: sha256WithRSAEncryption
         0e:cd:fc:ec:d3:f9:10:ad:2e:a5:6a:49:57:33:9a:79:63:3a:
         00:54:d3:5c:84:49:45:3c:16:0c:6d:76:f3:af:41:6c:e5:d3:
         0e:df:7d:9d:2c:9d:86:3e:c5:70:c4:73:7c:6b:8c:68:a8:b6:
         97:37:c8:a5:a4:01:aa:66:9b:90:7c:96:74:c6:b5:c0:ad:92:
         5c:bf:bd:06:3f:9f:1c:f3:4e:d9:d8:23:1d:ea:30:d5:1a:8e:
         33:92:bc:5a:cf:9e:f9:23:28:2e:f3:1d:c4:07:97:fc:56:cd:
         c9:f8:34:3c:61:9b:13:33:11:11:13:ee:16:c4:8c:cb:42:b2:
         1b:06:81:11:65:49:aa:b8:72:fe:f5:6e:5e:d9:c9:5b:6a:0a:
         44:cb:1e:42:45:0a:d3:7f:97:90:a5:ba:09:da:08:df:6f:25:
         03:55:b6:bb:b5:65:c9:5a:de:9b:e6:e1:b2:0a:52:f7:fc:97:
         6b:74:cb:03:de:93:00:d3:78:d4:93:eb:bc:cc:a0:3b:08:7b:
         4a:52:6b:2d:dc:3d:f0:76:6e:45:38:56:a8:4c:78:38:47:79:
         e9:a0:30:f7:59:3a:b9:28:dd:5b:fe:ae:99:e5:10:f8:03:f0:
         97:49:1a:6b:66:37:68:07:ac:8e:a5:cd:2f:3f:2e:b3:f2:1f:
         2d:1c:7e:f0
-----BEGIN CERTIFICATE-----
MIIDszCCApsCFGEimqT2OZ8J9UI7Deulj89vQBk4MA0GCSqGSIb3DQEBCwUAMIGV
MQswCQYDVQQGEwJKUDEOMAwGA1UECAwFVE9LWU8xDjAMBgNVBAcMBVRPS1lPMRYw
FAYDVQQKDA1Xb2xmU1NMIEphcGFuMRMwEQYDVQQLDApDb25zdWx0aW5nMRgwFgYD
VQQDDA93d3cud29sZnNzbC5jb20xHzAdBgkqhkiG9w0BCQEWEGluZm9Ad29sZnNz
bC5jb20wHhcNMjEwNjEwMDUzNTIxWhcNMjQwMzA2MDUzNTIxWjCBlTELMAkGA1UE
BhMCSlAxDjAMBgNVBAgMBVRPS1lPMQ4wDAYDVQQHDAVUT0tZTzEWMBQGA1UECgwN
V29sZlNTTCBKYXBhbjETMBEGA1UECwwKQ29uc3VsdGluZzEYMBYGA1UEAwwPd3d3
LndvbGZzc2wuY29tMR8wHQYJKoZIhvcNAQkBFhBpbmZvQHdvbGZzc2wuY29tMIIB
IjANBgkqhkiG9w0BAQEFAAOCAQ8AMIIBCgKCAQEAyV+GxmanCBuY1Vj9LlCtmNxg
wuv+87frnU1vAdP9io1PAvmFp/r8BSbfvoRO0B3wTPsQDwGuINHRKM06amgHGJgU
7ksiiJTwQcxh2wqpsWw3jgPFoU7jZrU5vFjQkP+brQBlc+elVrY+INobsf0NMIsB
au4As703+grFWhrq5M5y40ODQ17LRfCq9qqu0Az1XX+Nirj4PS99ZOC7FI/K1rUO
ECdq2Thii32nXNLUolFephdI8IKgKTrh6tSOsfqF1UztYlRjofg5fVnR/t0WU5X7
3oUkljIazXyUxNCaAaOGRX6a4RyR6XzQ7wIpsaM3e4b7vxcd/9+WuV1trpWpwQID
AQABMA0GCSqGSIb3DQEBCwUAA4IBAQAOzfzs0/kQrS6laklXM5p5YzoAVNNchElF
PBYMbXbzr0Fs5dMO332dLJ2GPsVwxHN8a4xoqLaXN8ilpAGqZpuQfJZ0xrXArZJc
v70GP58c807Z2CMd6jDVGo4zkrxaz575Iygu8x3EB5f8Vs3J+DQ8YZsTMxERE+4W
xIzLQrIbBoERZUmquHL+9W5e2clbagpEyx5CRQrTf5eQpboJ2gjfbyUDVba7tWXJ
Wt6b5uGyClL3/JdrdMsD3pMA03jUk+u8zKA7CHtKUmst3D3wdm5FOFaoTHg4R3np
oDD3WTq5KN1b/q6Z5RD4A/CXSRprZjdoB6yOpc0vPy6z8h8tHH7w
-----END CERTIFICATE-----
